target datalayout = "e-m:e-p270:32:32-p271:32:32-p272:64:64-i64:64-i128:128-f80:128-n8:16:32:64-S128"
target triple = "x86_64-pc-linux-gnu"

%struct._zend_array = type { %struct._zend_refcounted_h, %union.anon.0, i32, %union.anon.1, i32, i32, i32, i32, i64, ptr }
%struct._zend_refcounted_h = type { i32, %union.anon }
%union.anon = type { i32 }
%union.anon.0 = type { i32 }
%union.anon.1 = type { ptr }
%struct._zend_op_array = type { i8, [3 x i8], i32, ptr, ptr, ptr, i32, i32, ptr, ptr, ptr, ptr, i32, i32, i32, i32, ptr, ptr, ptr, ptr, ptr, i32, i32, ptr, ptr, ptr, i32, i32, i32, i32, ptr, ptr, [6 x ptr] }
%struct._zend_persistent_script = type { %struct._zend_script, i64, i32, i64, i8, i8, i8, i32, i32, ptr, ptr, ptr, i64, %struct.zend_persistent_script_dynamic_members }
%struct._zend_script = type { ptr, %struct._zend_op_array, %struct._zend_array, %struct._zend_array }
%struct.zend_persistent_script_dynamic_members = type { i64, i64, i32, i64 }
%struct._zend_early_binding = type { ptr, ptr, ptr, i32 }

; Function Attrs: nounwind uwtable
define hidden void @zend_accel_free_delayed_early_binding_list(ptr noundef %0) #0 {
  %2 = alloca ptr, align 8
  %3 = alloca ptr, align 8
  %4 = alloca ptr, align 8
  %5 = alloca i32, align 4
  %6 = alloca i32, align 4
  %7 = alloca i32, align 4
  %8 = alloca i32, align 4
  %9 = alloca i32, align 4
  %10 = alloca i32, align 4
  %11 = alloca ptr, align 8
  %12 = alloca ptr, align 8
  %13 = alloca ptr, align 8
  %14 = alloca ptr, align 8
  %15 = alloca i32, align 4
  %16 = alloca ptr, align 8
  store ptr %0, ptr %14, align 8
  %17 = load ptr, ptr %14, align 8
  %18 = getelementptr inbounds %struct._zend_persistent_script, ptr %17, i32 0, i32 8
  %19 = load i32, ptr %18, align 8
  %20 = icmp ne i32 %19, 0
  br i1 %20, label %21, label %148

21:                                               ; preds = %1
  store i32 0, ptr %15, align 4
  br label %22

22:                                               ; preds = %137, %21
  %23 = load i32, ptr %15, align 4
  %24 = load ptr, ptr %14, align 8
  %25 = getelementptr inbounds %struct._zend_persistent_script, ptr %24, i32 0, i32 8
  %26 = load i32, ptr %25, align 8
  %27 = icmp ult i32 %23, %26
  br i1 %27, label %28, label %140

28:                                               ; preds = %22
  %29 = load ptr, ptr %14, align 8
  %30 = getelementptr inbounds %struct._zend_persistent_script, ptr %29, i32 0, i32 10
  %31 = load ptr, ptr %30, align 8
  %32 = load i32, ptr %15, align 4
  %33 = zext i32 %32 to i64
  %34 = getelementptr inbounds %struct._zend_early_binding, ptr %31, i64 %33
  store ptr %34, ptr %16, align 8
  %35 = load ptr, ptr %16, align 8
  %36 = getelementptr inbounds %struct._zend_early_binding, ptr %35, i32 0, i32 0
  %37 = load ptr, ptr %36, align 8
  store ptr %37, ptr %11, align 8
  %38 = load ptr, ptr %11, align 8
  %39 = getelementptr inbounds %struct._zend_refcounted_h, ptr %38, i32 0, i32 1
  %40 = load i32, ptr %39, align 4
  store i32 %40, ptr %9, align 4
  %41 = load i32, ptr %9, align 4
  %42 = and i32 %41, 1008
  %43 = and i32 %42, 64
  %44 = icmp ne i32 %43, 0
  br i1 %44, label %68, label %45

45:                                               ; preds = %28
  %46 = load ptr, ptr %11, align 8
  store ptr %46, ptr %4, align 8
  %47 = load ptr, ptr %4, align 8
  %48 = load i32, ptr %47, align 4
  %49 = icmp ugt i32 %48, 0
  call void @llvm.assume(i1 %49)
  %50 = load ptr, ptr %4, align 8
  %51 = load i32, ptr %50, align 4
  %52 = add i32 %51, -1
  store i32 %52, ptr %50, align 4
  %53 = icmp eq i32 %52, 0
  br i1 %53, label %54, label %67

54:                                               ; preds = %45
  %55 = load ptr, ptr %11, align 8
  %56 = getelementptr inbounds %struct._zend_refcounted_h, ptr %55, i32 0, i32 1
  %57 = load i32, ptr %56, align 4
  store i32 %57, ptr %10, align 4
  %58 = load i32, ptr %10, align 4
  %59 = and i32 %58, 1008
  %60 = and i32 %59, 128
  %61 = icmp ne i32 %60, 0
  br i1 %61, label %62, label %64

62:                                               ; preds = %54
  %63 = load ptr, ptr %11, align 8
  call void @free(ptr noundef %63) #11
  br label %66

64:                                               ; preds = %54
  %65 = load ptr, ptr %11, align 8
  call void @_efree(ptr noundef %65) #11
  br label %66

66:                                               ; preds = %64, %62
  br label %67

67:                                               ; preds = %66, %45
  br label %68

68:                                               ; preds = %67, %28
  %69 = load ptr, ptr %16, align 8
  %70 = getelementptr inbounds %struct._zend_early_binding, ptr %69, i32 0, i32 1
  %71 = load ptr, ptr %70, align 8
  store ptr %71, ptr %12, align 8
  %72 = load ptr, ptr %12, align 8
  %73 = getelementptr inbounds %struct._zend_refcounted_h, ptr %72, i32 0, i32 1
  %74 = load i32, ptr %73, align 4
  store i32 %74, ptr %7, align 4
  %75 = load i32, ptr %7, align 4
  %76 = and i32 %75, 1008
  %77 = and i32 %76, 64
  %78 = icmp ne i32 %77, 0
  br i1 %78, label %102, label %79

79:                                               ; preds = %68
  %80 = load ptr, ptr %12, align 8
  store ptr %80, ptr %3, align 8
  %81 = load ptr, ptr %3, align 8
  %82 = load i32, ptr %81, align 4
  %83 = icmp ugt i32 %82, 0
  call void @llvm.assume(i1 %83)
  %84 = load ptr, ptr %3, align 8
  %85 = load i32, ptr %84, align 4
  %86 = add i32 %85, -1
  store i32 %86, ptr %84, align 4
  %87 = icmp eq i32 %86, 0
  br i1 %87, label %88, label %101

88:                                               ; preds = %79
  %89 = load ptr, ptr %12, align 8
  %90 = getelementptr inbounds %struct._zend_refcounted_h, ptr %89, i32 0, i32 1
  %91 = load i32, ptr %90, align 4
  store i32 %91, ptr %8, align 4
  %92 = load i32, ptr %8, align 4
  %93 = and i32 %92, 1008
  %94 = and i32 %93, 128
  %95 = icmp ne i32 %94, 0
  br i1 %95, label %96, label %98

96:                                               ; preds = %88
  %97 = load ptr, ptr %12, align 8
  call void @free(ptr noundef %97) #11
  br label %100

98:                                               ; preds = %88
  %99 = load ptr, ptr %12, align 8
  call void @_efree(ptr noundef %99) #11
  br label %100

100:                                              ; preds = %98, %96
  br label %101

101:                                              ; preds = %100, %79
  br label %102

102:                                              ; preds = %101, %68
  %103 = load ptr, ptr %16, align 8
  %104 = getelementptr inbounds %struct._zend_early_binding, ptr %103, i32 0, i32 2
  %105 = load ptr, ptr %104, align 8
  store ptr %105, ptr %13, align 8
  %106 = load ptr, ptr %13, align 8
  %107 = getelementptr inbounds %struct._zend_refcounted_h, ptr %106, i32 0, i32 1
  %108 = load i32, ptr %107, align 4
  store i32 %108, ptr %5, align 4
  %109 = load i32, ptr %5, align 4
  %110 = and i32 %109, 1008
  %111 = and i32 %110, 64
  %112 = icmp ne i32 %111, 0
  br i1 %112, label %136, label %113

113:                                              ; preds = %102
  %114 = load ptr, ptr %13, align 8
  store ptr %114, ptr %2, align 8
  %115 = load ptr, ptr %2, align 8
  %116 = load i32, ptr %115, align 4
  %117 = icmp ugt i32 %116, 0
  call void @llvm.assume(i1 %117)
  %118 = load ptr, ptr %2, align 8
  %119 = load i32, ptr %118, align 4
  %120 = add i32 %119, -1
  store i32 %120, ptr %118, align 4
  %121 = icmp eq i32 %120, 0
  br i1 %121, label %122, label %135

122:                                              ; preds = %113
  %123 = load ptr, ptr %13, align 8
  %124 = getelementptr inbounds %struct._zend_refcounted_h, ptr %123, i32 0, i32 1
  %125 = load i32, ptr %124, align 4
  store i32 %125, ptr %6, align 4
  %126 = load i32, ptr %6, align 4
  %127 = and i32 %126, 1008
  %128 = and i32 %127, 128
  %129 = icmp ne i32 %128, 0
  br i1 %129, label %130, label %132

130:                                              ; preds = %122
  %131 = load ptr, ptr %13, align 8
  call void @free(ptr noundef %131) #11
  br label %134

132:                                              ; preds = %122
  %133 = load ptr, ptr %13, align 8
  call void @_efree(ptr noundef %133) #11
  br label %134

134:                                              ; preds = %132, %130
  br label %135

135:                                              ; preds = %134, %113
  br label %136

136:                                              ; preds = %135, %102
  br label %137

137:                                              ; preds = %136
  %138 = load i32, ptr %15, align 4
  %139 = add i32 %138, 1
  store i32 %139, ptr %15, align 4
  br label %22

140:                                              ; preds = %22
  %141 = load ptr, ptr %14, align 8
  %142 = getelementptr inbounds %struct._zend_persistent_script, ptr %141, i32 0, i32 10
  %143 = load ptr, ptr %142, align 8
  call void @_efree(ptr noundef %143)
  %144 = load ptr, ptr %14, align 8
  %145 = getelementptr inbounds %struct._zend_persistent_script, ptr %144, i32 0, i32 10
  store ptr null, ptr %145, align 8
  %146 = load ptr, ptr %14, align 8
  %147 = getelementptr inbounds %struct._zend_persistent_script, ptr %146, i32 0, i32 8
  store i32 0, ptr %147, align 8
  br label %148

148:                                              ; preds = %140, %1
  ret void
}