; Function Attrs: nounwind uwtable
define hidden void @zend_accel_free_delayed_early_binding_list(ptr nocapture noundef %0) local_unnamed_addr #0 {
  %2 = getelementptr inbounds i8, ptr %0, i64 392
  %3 = load i32, ptr %2, align 8
  %.not = icmp eq i32 %3, 0
  br i1 %.not, label %57, label %.lr.ph

.lr.ph:                                           ; preds = %1
  %4 = getelementptr inbounds i8, ptr %0, i64 408
  br label %5

5:                                                ; preds = %.lr.ph, %51
  %indvars.iv = phi i64 [ 0, %.lr.ph ], [ %indvars.iv.next, %51 ]
  %6 = load ptr, ptr %4, align 8
  %7 = getelementptr inbounds %struct._zend_early_binding, ptr %6, i64 %indvars.iv
  %8 = load ptr, ptr %7, align 8
  %9 = getelementptr inbounds i8, ptr %8, i64 4
  %10 = load i32, ptr %9, align 4
  %11 = and i32 %10, 64
  %.not38 = icmp eq i32 %11, 0
  br i1 %.not38, label %12, label %21

12:                                               ; preds = %5
  %13 = load i32, ptr %8, align 4
  %14 = icmp ne i32 %13, 0
  tail call void @llvm.assume(i1 %14)
  %15 = add i32 %13, -1
  store i32 %15, ptr %8, align 4
  %16 = icmp eq i32 %15, 0
  br i1 %16, label %17, label %21

17:                                               ; preds = %12
  %18 = and i32 %10, 128
  %.not39 = icmp eq i32 %18, 0
  br i1 %.not39, label %20, label %19

19:                                               ; preds = %17
  tail call void @free(ptr noundef nonnull %8) #10
  br label %21

20:                                               ; preds = %17
  tail call void @_efree(ptr noundef nonnull %8) #10
  br label %21

21:                                               ; preds = %12, %20, %19, %5
  %22 = getelementptr inbounds i8, ptr %7, i64 8
  %23 = load ptr, ptr %22, align 8
  %24 = getelementptr inbounds i8, ptr %23, i64 4
  %25 = load i32, ptr %24, align 4
  %26 = and i32 %25, 64
  %.not40 = icmp eq i32 %26, 0
  br i1 %.not40, label %27, label %36

27:                                               ; preds = %21
  %28 = load i32, ptr %23, align 4
  %29 = icmp ne i32 %28, 0
  tail call void @llvm.assume(i1 %29)
  %30 = add i32 %28, -1
  store i32 %30, ptr %23, align 4
  %31 = icmp eq i32 %30, 0
  br i1 %31, label %32, label %36

32:                                               ; preds = %27
  %33 = and i32 %25, 128
  %.not41 = icmp eq i32 %33, 0
  br i1 %.not41, label %35, label %34

34:                                               ; preds = %32
  tail call void @free(ptr noundef nonnull %23) #10
  br label %36

35:                                               ; preds = %32
  tail call void @_efree(ptr noundef nonnull %23) #10
  br label %36

36:                                               ; preds = %27, %35, %34, %21
  %37 = getelementptr inbounds i8, ptr %7, i64 16
  %38 = load ptr, ptr %37, align 8
  %39 = getelementptr inbounds i8, ptr %38, i64 4
  %40 = load i32, ptr %39, align 4
  %41 = and i32 %40, 64
  %.not42 = icmp eq i32 %41, 0
  br i1 %.not42, label %42, label %51

42:                                               ; preds = %36
  %43 = load i32, ptr %38, align 4
  %44 = icmp ne i32 %43, 0
  tail call void @llvm.assume(i1 %44)
  %45 = add i32 %43, -1
  store i32 %45, ptr %38, align 4
  %46 = icmp eq i32 %45, 0
  br i1 %46, label %47, label %51

47:                                               ; preds = %42
  %48 = and i32 %40, 128
  %.not43 = icmp eq i32 %48, 0
  br i1 %.not43, label %50, label %49

49:                                               ; preds = %47
  tail call void @free(ptr noundef nonnull %38) #10
  br label %51

50:                                               ; preds = %47
  tail call void @_efree(ptr noundef nonnull %38) #10
  br label %51

51:                                               ; preds = %36, %49, %50, %42
  %indvars.iv.next = add nuw nsw i64 %indvars.iv, 1
  %52 = load i32, ptr %2, align 8
  %53 = zext i32 %52 to i64
  %54 = icmp ult i64 %indvars.iv.next, %53
  br i1 %54, label %5, label %._crit_edge

._crit_edge:                                      ; preds = %51
  %55 = getelementptr inbounds i8, ptr %0, i64 408
  %56 = load ptr, ptr %55, align 8
  tail call void @_efree(ptr noundef %56) #10
  store ptr null, ptr %55, align 8
  store i32 0, ptr %2, align 8
  br label %57

57:                                               ; preds = %._crit_edge, %1
  ret void
}